Microchip MPLAB XC8 Compiler V1.45 ()

Linker command line:

-W-3 --edf=C:\Program Files (x86)\Microchip\xc8\v1.45\dat\en_msgs.txt -cs \
  -h+dist/default/production\Libreria_max7219.X.production.sym \
  --cmf=dist/default/production\Libreria_max7219.X.production.cmf -z \
  -Q18F45K20 -oC:\Users\camil\AppData\Local\Temp\s4k4.2 \
  -Mdist/default/production/Libreria_max7219.X.production.map -E1 -ver=XC8 \
  -ASTACK=0B0h-05ffh -pstack=STACK -ACODE=00h-07FFFh -ACONST=00h-07FFFh \
  -ASMALLCONST=0600h-06FFhx122 -AMEDIUMCONST=0600h-07FFFh -ACOMRAM=01h-05Fh \
  -AABS1=00h-05FFh -ABIGRAM=01h-05FFh -ARAM=060h-0FFh,0100h-01FFhx5 \
  -ABANK0=060h-0FFh -ABANK1=0100h-01FFh -ABANK2=0200h-02FFh \
  -ABANK3=0300h-03FFh -ABANK4=0400h-04FFh -ABANK5=0500h-05FFh \
  -ASFR=0F60h-0FFFh -preset_vec=00h,intcode,intcodelo,powerup,init \
  -pramtop=0600h -psmallconst=SMALLCONST -pmediumconst=MEDIUMCONST \
  -pconst=CONST -AFARRAM=00h-00h -ACONFIG=0300000h-030000Dh -pconfig=CONFIG \
  -AIDLOC=0200000h-0200007h -pidloc=IDLOC -AEEDATA=0F00000h-0F000FFh \
  -peeprom_data=EEDATA \
  -prdata=COMRAM,nvrram=COMRAM,nvbit=COMRAM,rbss=COMRAM,rbit=COMRAM \
  -pfarbss=FARRAM,fardata=FARRAM,nvFARRAM=FARRAM \
  -pintsave_regs=BIGRAM,bigbss=BIGRAM,bigdata=BIGRAM -pbss=RAM \
  -pidata=CODE,irdata=CODE,ibigdata=CODE,ifardata=CODE -prparam=COMRAM \
  C:\Users\camil\AppData\Local\Temp\s4k4.obj \
  dist/default/production\Libreria_max7219.X.production.obj 

Object code version is 3.11

Machine type is 18F45K20

Call graph: (short form)




                Name                               Link     Load   Length Selector   Space Scale
C:\Users\camil\AppData\Local\Temp\s4k4.obj
                init                                  0        0        4        0       0
                idloc                            200000   200000        8   200000       0
                config                           300000   300000        E   300000       0
dist/default/production\Libreria_max7219.X.production.obj
                mediumconst                        7E4E     7E4E      1B2     3F27       0
                text9                              7AE2     7AE2       40     3D71       0
                text8                              7B64     7B64       50     3DB2       0
                text7                              7A8A     7A8A       20     3D45       0
                text6                              7A50     7A50       12     3D28       0
                text5                              7A74     7A74       16     3D3A       0
                text4                              7A62     7A62       12     3D31       0
                text3                              7BB4     7BB4       52     3DDA       0
                text2                              7CB6     7CB6      198     3E5B       0
                text1                              7C06     7C06       B0     3E03       0
                text0                              7AAA     7AAA       38     3D55       0
                cstackCOMRAM                          1        1       1B        1       1
                bssBANK0                             60       60       50       60       1
                dataCOMRAM                           1C       1C       10        1       1
                bssCOMRAM                            2C       2C        A        1       1
                cinit                              7B22     7B22       42     3D91       0
                idataCOMRAM                        7A40     7A40       10     7A40       0

TOTAL           Name                               Link     Load   Length     Space
        CLASS   STACK          

        CLASS   CODE           
                init                                  0        0        4         0
                text9                              7AE2     7AE2       40         0
                text8                              7B64     7B64       50         0
                text7                              7A8A     7A8A       20         0
                text6                              7A50     7A50       12         0
                text5                              7A74     7A74       16         0
                text4                              7A62     7A62       12         0
                text3                              7BB4     7BB4       52         0
                text2                              7CB6     7CB6      198         0
                text1                              7C06     7C06       B0         0
                text0                              7AAA     7AAA       38         0
                cinit                              7B22     7B22       42         0
                idataCOMRAM                        7A40     7A40       10         0

        CLASS   CONST          

        CLASS   SMALLCONST     

        CLASS   MEDIUMCONST    
                mediumconst                        7E4E     7E4E      1B2         0

        CLASS   COMRAM         
                cstackCOMRAM                          1        1       1B         1
                dataCOMRAM                           1C       1C       10         1
                bssCOMRAM                            2C       2C        A         1

        CLASS   ABS1           

        CLASS   BIGRAM         

        CLASS   RAM            

        CLASS   BANK0          
                bssBANK0                             60       60       50         1

        CLASS   BANK1          

        CLASS   BANK2          

        CLASS   BANK3          

        CLASS   BANK4          

        CLASS   BANK5          

        CLASS   SFR            

        CLASS   FARRAM         

        CLASS   CONFIG         
                config                           300000   300000        E         0

        CLASS   IDLOC          
                idloc                            200000   200000        8         0

        CLASS   EEDATA         



SEGMENTS        Name                           Load    Length   Top    Selector   Space  Class

                reset_vec                      000000  000004  000004         0       0  CODE    
                cstackCOMRAM                   000001  000035  000036         1       1  COMRAM  
                bssBANK0                       000060  000050  0000B0        60       1  BANK0   
                idataCOMRAM                    007A40  000010  007A50      7A40       0  CODE    
                text6                          007A50  000012  007A62      3D28       0  CODE    
                text4                          007A62  000012  007A74      3D31       0  CODE    
                text5                          007A74  000016  007A8A      3D3A       0  CODE    
                text7                          007A8A  000020  007AAA      3D45       0  CODE    
                text0                          007AAA  000038  007AE2      3D55       0  CODE    
                text9                          007AE2  000040  007B22      3D71       0  CODE    
                cinit                          007B22  000042  007B64      3D91       0  CODE    
                text8                          007B64  000050  007BB4      3DB2       0  CODE    
                text3                          007BB4  000052  007C06      3DDA       0  CODE    
                text1                          007C06  0000B0  007CB6      3E03       0  CODE    
                text2                          007CB6  000198  007E4E      3E5B       0  CODE    
                mediumconst                    007E4E  0001B2  008000      3F27       0  MEDIUMCO
                idloc                          200000  000008  200008    200000       0  IDLOC   
                config                         300000  00000E  30000E    300000       0  CONFIG  


UNUSED ADDRESS RANGES

        Name                Unused          Largest block    Delta
        BANK0            0000B0-0000FF               50
        BANK1            000100-0001FF              100
        BANK2            000200-0002FF              100
        BANK3            000300-0003FF              100
        BANK4            000400-0004FF              100
        BANK5            000500-0005FF              100
        BIGRAM           000036-00005F               2A
                         0000B0-0005FF              550
        CODE             000004-007A3F             7A3C
        COMRAM           000036-00005F               2A
        CONST            000004-007A3F             7A3C
        EEDATA           F00000-F000FF              100
        MEDIUMCONST      000600-007A3F             7440
        RAM              0000B0-0005FF              100
        SFR              000F60-000FFF               A0
        SMALLCONST       000600-007A3F              100
        STACK            0000B0-0005FF              550

                                  Symbol Table

Enviar_MAX72xx@F3344              bssCOMRAM    00002C
MAX7219_Clear@i                   cstackCOMRAM 00000B
MAX7219_Clear@n                   cstackCOMRAM 00000A
MAX7219_DisplayTestStop@i         cstackCOMRAM 00000A
MAX7219_Init@i                    cstackCOMRAM 00000D
MAX7219_Init@n                    cstackCOMRAM 00000C
MAX7219_SendByte@dataout          cstackCOMRAM 000003
MAX7219_SendByte@i                cstackCOMRAM 000005
MAX7219_SendByte@mask             cstackCOMRAM 000004
MAX7219_SetBrightness@brightness  cstackCOMRAM 00000A
MAX7219_SetBrightness@i           cstackCOMRAM 00000B
MAX7219_ShutdownStop@i            cstackCOMRAM 00000A
MAX7219_Write@dataout             cstackCOMRAM 000007
MAX7219_Write@i                   cstackCOMRAM 000008
MAX7219_Write@n                   cstackCOMRAM 000009
MAX7219_Write@reg_number          cstackCOMRAM 000006
Mostrar@cont                      cstackCOMRAM 000018
Mostrar@matrix_1                  cstackCOMRAM 00000F
Mostrar@matrix_2                  cstackCOMRAM 00000E
Mostrar@matrix_3                  cstackCOMRAM 00000D
Mostrar@matrix_4                  cstackCOMRAM 00000C
Mostrar@pm1                       cstackCOMRAM 000016
Mostrar@pm2                       cstackCOMRAM 000014
Mostrar@pm3                       cstackCOMRAM 000012
Mostrar@pm4                       cstackCOMRAM 000010
Mostrar@x                         cstackCOMRAM 00001A
WriteTexto@A                      cstackCOMRAM 000004
WriteTexto@Inicio                 cstackCOMRAM 00000D
WriteTexto@i                      cstackCOMRAM 000010
WriteTexto@j                      cstackCOMRAM 000011
WriteTexto@n                      cstackCOMRAM 000001
WriteTexto@texto                  cstackCOMRAM 00000C
WriteTexto@uvram                  cstackCOMRAM 00000F
_Am                               dataCOMRAM   000024
_Fuente                           mediumconst  007E4F
_MAX7219_Clear                    text7        007A8A
_MAX7219_DisplayTestStop          text6        007A50
_MAX7219_Init                     text3        007BB4
_MAX7219_SendByte                 text9        007AE2
_MAX7219_SetBrightness            text5        007A74
_MAX7219_ShutdownStop             text4        007A62
_MAX7219_Write                    text8        007B64
_Mostrar                          text2        007CB6
_PORTCbits                        (abs)        000F82
_Pm                               dataCOMRAM   00001C
_TRISCbits                        (abs)        000F94
_Vram                             bssBANK0     000060
_WriteTexto                       text1        007C06
__CFG_BOREN$SBORDIS               (abs)        000000
__CFG_BORV$18                     (abs)        000000
__CFG_CCP2MX$PORTC                (abs)        000000
__CFG_CP0$OFF                     (abs)        000000
__CFG_CP1$OFF                     (abs)        000000
__CFG_CP2$OFF                     (abs)        000000
__CFG_CP3$OFF                     (abs)        000000
__CFG_CPB$OFF                     (abs)        000000
__CFG_CPD$OFF                     (abs)        000000
__CFG_EBTR0$OFF                   (abs)        000000
__CFG_EBTR1$OFF                   (abs)        000000
__CFG_EBTR2$OFF                   (abs)        000000
__CFG_EBTR3$OFF                   (abs)        000000
__CFG_EBTRB$OFF                   (abs)        000000
__CFG_FCMEN$OFF                   (abs)        000000
__CFG_FOSC$INTIO67                (abs)        000000
__CFG_HFOFST$ON                   (abs)        000000
__CFG_IESO$OFF                    (abs)        000000
__CFG_LPT1OSC$OFF                 (abs)        000000
__CFG_LVP$OFF                     (abs)        000000
__CFG_MCLRE$ON                    (abs)        000000
__CFG_PBADEN$OFF                  (abs)        000000
__CFG_PWRT$OFF                    (abs)        000000
__CFG_STVREN$ON                   (abs)        000000
__CFG_WDTEN$ON                    (abs)        000000
__CFG_WDTPS$32768                 (abs)        000000
__CFG_WRT0$OFF                    (abs)        000000
__CFG_WRT1$OFF                    (abs)        000000
__CFG_WRT2$OFF                    (abs)        000000
__CFG_WRT3$OFF                    (abs)        000000
__CFG_WRTB$OFF                    (abs)        000000
__CFG_WRTC$OFF                    (abs)        000000
__CFG_WRTD$OFF                    (abs)        000000
__CFG_XINST$OFF                   (abs)        000000
__HRAM                            (abs)        000000
__Habs1                           abs1         000000
__Hbank0                          bank0        000000
__Hbank1                          bank1        000000
__Hbank2                          bank2        000000
__Hbank3                          bank3        000000
__Hbank4                          bank4        000000
__Hbank5                          bank5        000000
__Hbigbss                         bigbss       000000
__Hbigdata                        bigdata      000000
__Hbigram                         bigram       000000
__Hbss                            bss          000000
__HbssBANK0                       bssBANK0     000000
__HbssCOMRAM                      bssCOMRAM    000000
__Hcinit                          cinit        000000
__Hclrtext                        clrtext      000000
__Hcomram                         comram       000000
__Hconfig                         config       30000E
__Hconst                          const        000000
__HcstackCOMRAM                   cstackCOMRAM 000000
__Hdata                           data         000000
__HdataCOMRAM                     dataCOMRAM   000000
__Heeprom_data                    eeprom_data  000000
__Hfarbss                         farbss       000000
__Hfardata                        fardata      000000
__Hibigdata                       ibigdata     000000
__Hidata                          idata        000000
__HidataCOMRAM                    idataCOMRAM  000000
__Hidloc                          idloc        200008
__Hifardata                       ifardata     000000
__Hinit                           init         000004
__Hintcode                        intcode      000000
__Hintcode_body                   intcode_body 000000
__Hintcodelo                      intcodelo    000000
__Hintentry                       intentry     000000
__Hintret                         intret       000000
__Hintsave_regs                   intsave_regs 000000
__Hirdata                         irdata       000000
__Hmediumconst                    mediumconst  008000
__HnvFARRAM                       nvFARRAM     000000
__Hnvbit                          nvbit        000000
__Hnvrram                         nvrram       000000
__Hparam                          rparam       000000
__Hpowerup                        powerup      000000
__Hram                            ram          000000
__Hramtop                         ramtop       000600
__Hrbit                           rbit         000000
__Hrbss                           rbss         000000
__Hrdata                          rdata        000000
__Hreset_vec                      reset_vec    000000
__Hrparam                         rparam       000000
__Hsfr                            sfr          000000
__Hsmallconst                     smallconst   000000
__Hspace_0                        (abs)        30000E
__Hspace_1                        (abs)        0000B0
__Hspace_2                        (abs)        000000
__Hstack                          stack        000000
__Hstruct                         struct       000000
__Htemp                           temp         000000
__Htext                           text         000000
__Htext0                          text0        000000
__Htext1                          text1        000000
__Htext2                          text2        000000
__Htext3                          text3        000000
__Htext4                          text4        000000
__Htext5                          text5        000000
__Htext6                          text6        000000
__Htext7                          text7        000000
__Htext8                          text8        000000
__Htext9                          text9        000000
__LRAM                            (abs)        000001
__Labs1                           abs1         000000
__Lbank0                          bank0        000000
__Lbank1                          bank1        000000
__Lbank2                          bank2        000000
__Lbank3                          bank3        000000
__Lbank4                          bank4        000000
__Lbank5                          bank5        000000
__Lbigbss                         bigbss       000000
__Lbigdata                        bigdata      000000
__Lbigram                         bigram       000000
__Lbss                            bss          000000
__LbssBANK0                       bssBANK0     000000
__LbssCOMRAM                      bssCOMRAM    000000
__Lcinit                          cinit        000000
__Lclrtext                        clrtext      000000
__Lcomram                         comram       000000
__Lconfig                         config       300000
__Lconst                          const        000000
__LcstackCOMRAM                   cstackCOMRAM 000000
__Ldata                           data         000000
__LdataCOMRAM                     dataCOMRAM   000000
__Leeprom_data                    eeprom_data  000000
__Lfarbss                         farbss       000000
__Lfardata                        fardata      000000
__Libigdata                       ibigdata     000000
__Lidata                          idata        000000
__LidataCOMRAM                    idataCOMRAM  000000
__Lidloc                          idloc        200000
__Lifardata                       ifardata     000000
__Linit                           init         000000
__Lintcode                        intcode      000000
__Lintcode_body                   intcode_body 000000
__Lintcodelo                      intcodelo    000000
__Lintentry                       intentry     000000
__Lintret                         intret       000000
__Lintsave_regs                   intsave_regs 000000
__Lirdata                         irdata       000000
__Lmediumconst                    mediumconst  007E4E
__LnvFARRAM                       nvFARRAM     000000
__Lnvbit                          nvbit        000000
__Lnvrram                         nvrram       000000
__Lparam                          rparam       000000
__Lpowerup                        powerup      000000
__Lram                            ram          000000
__Lramtop                         ramtop       000600
__Lrbit                           rbit         000000
__Lrbss                           rbss         000000
__Lrdata                          rdata        000000
__Lreset_vec                      reset_vec    000000
__Lrparam                         rparam       000000
__Lsfr                            sfr          000000
__Lsmallconst                     smallconst   000000
__Lspace_0                        (abs)        000000
__Lspace_1                        (abs)        000000
__Lspace_2                        (abs)        000000
__Lstack                          stack        000000
__Lstruct                         struct       000000
__Ltemp                           temp         000000
__Ltext                           text         000000
__Ltext0                          text0        000000
__Ltext1                          text1        000000
__Ltext2                          text2        000000
__Ltext3                          text3        000000
__Ltext4                          text4        000000
__Ltext5                          text5        000000
__Ltext6                          text6        000000
__Ltext7                          text7        000000
__Ltext8                          text8        000000
__Ltext9                          text9        000000
__S0                              (abs)        30000E
__S1                              (abs)        0000B0
__S2                              (abs)        000000
___inthi_sp                       stack        000000
___intlo_sp                       stack        000000
___param_bank                     (abs)        000000
___rparam_used                    (abs)        000001
___sp                             stack        000000
__accesstop                       (abs)        000060
__activetblptr                    (abs)        000002
__end_of_Fuente                   mediumconst  007FF7
__end_of_MAX7219_Clear            text7        007AAA
__end_of_MAX7219_DisplayTestStop  text6        007A62
__end_of_MAX7219_Init             text3        007C06
__end_of_MAX7219_SendByte         text9        007B22
__end_of_MAX7219_SetBrightness    text5        007A8A
__end_of_MAX7219_ShutdownStop     text4        007A74
__end_of_MAX7219_Write            text8        007BB4
__end_of_Mostrar                  text2        007E4E
__end_of_WriteTexto               text1        007CB6
__end_of__initialization          cinit        007B5A
__end_of_main                     text0        007AE2
__end_of_men                      mediumconst  007FFD
__initialization                  cinit        007B22
__mediumconst                     mediumconst  007E4E
__pbssBANK0                       bssBANK0     000060
__pbssCOMRAM                      bssCOMRAM    00002C
__pcinit                          cinit        007B22
__pcstackCOMRAM                   cstackCOMRAM 000001
__pdataCOMRAM                     dataCOMRAM   00001C
__pidataCOMRAM                    idataCOMRAM  007A40
__pmediumconst                    mediumconst  007E4E
__ptext0                          text0        007AAA
__ptext1                          text1        007C06
__ptext2                          text2        007CB6
__ptext3                          text3        007BB4
__ptext4                          text4        007A62
__ptext5                          text5        007A74
__ptext6                          text6        007A50
__ptext7                          text7        007A8A
__ptext8                          text8        007B64
__ptext9                          text9        007AE2
__ramtop                          ramtop       000600
__size_of_MAX7219_Clear           (abs)        000000
__size_of_MAX7219_DisplayTestStop (abs)        000000
__size_of_MAX7219_Init            (abs)        000000
__size_of_MAX7219_SendByte        (abs)        000000
__size_of_MAX7219_SetBrightness   (abs)        000000
__size_of_MAX7219_ShutdownStop    (abs)        000000
__size_of_MAX7219_Write           (abs)        000000
__size_of_Mostrar                 (abs)        000000
__size_of_WriteTexto              (abs)        000000
__size_of_main                    (abs)        000000
__smallconst                      smallconst   000000
_main                             text0        007AAA
_men                              mediumconst  007FF7
end_of_initialization             cinit        007B5A
intlevel0                         text         000000
intlevel1                         text         000000
intlevel2                         text         000000
intlevel3                         text         000000
main@i                            cstackCOMRAM 00001B
stackhi                           (abs)        0005FF
stacklo                           (abs)        0000B0
start                             init         000000
start_initialization              cinit        007B22


FUNCTION INFORMATION:

 *************** function _main *****************
 Defined at:
		line 15 in file "main.c"
 Parameters:    Size  Location     Type
		None
 Auto vars:     Size  Location     Type
  i               1   26[COMRAM] unsigned char 
 Return value:  Size  Location     Type
                  1    wreg      void 
 Registers used:
		wreg, fsr1l, fsr1h, fsr2l, fsr2h, status,2, status,0, tblptrl, tblptrh, tblptru, prodl, prodh, cstack
 Tracked objects:
		On entry : 
		On exit  : 
		Unchanged: 
 Data sizes:     COMRAM   BANK0   BANK1   BANK2   BANK3   BANK4   BANK5
      Params:         0       0       0       0       0       0       0
      Locals:         1       0       0       0       0       0       0
      Temps:          0       0       0       0       0       0       0
      Totals:         1       0       0       0       0       0       0
Total ram usage:        1 bytes
 Hardware stack levels required when called:    4
 This function calls:
		_MAX7219_Init
		_Mostrar
		_WriteTexto
 This function is called by:
		Startup code after reset
 This function uses a non-reentrant model


 *************** function _WriteTexto *****************
 Defined at:
		line 473 in file "max7219.c"
 Parameters:    Size  Location     Type
  texto           1    wreg     unsigned char 
  n               1    0[COMRAM] unsigned char 
 Auto vars:     Size  Location     Type
  texto           1   11[COMRAM] unsigned char 
  j               1   16[COMRAM] unsigned char 
  i               1   15[COMRAM] unsigned char 
  A               8    3[COMRAM] unsigned char [8]
  Inicio          2   12[COMRAM] int 
  uvram           1   14[COMRAM] unsigned char 
 Return value:  Size  Location     Type
                  1    wreg      void 
 Registers used:
		wreg, fsr1l, fsr1h, fsr2l, fsr2h, status,2, status,0, tblptrl, tblptrh, tblptru, prodl, prodh
 Tracked objects:
		On entry : 
		On exit  : 
		Unchanged: 
 Data sizes:     COMRAM   BANK0   BANK1   BANK2   BANK3   BANK4   BANK5
      Params:         1       0       0       0       0       0       0
      Locals:        14       0       0       0       0       0       0
      Temps:          2       0       0       0       0       0       0
      Totals:        17       0       0       0       0       0       0
Total ram usage:       17 bytes
 Hardware stack levels used:    1
 This function calls:
		Nothing
 This function is called by:
		_main
 This function uses a non-reentrant model


 *************** function _Mostrar *****************
 Defined at:
		line 491 in file "max7219.c"
 Parameters:    Size  Location     Type
		None
 Auto vars:     Size  Location     Type
  cont            2   23[COMRAM] int 
  pm1             2   21[COMRAM] PTR unsigned char 
		 -> Vram(80), 
  pm2             2   19[COMRAM] PTR unsigned char 
		 -> Vram(80), 
  pm3             2   17[COMRAM] PTR unsigned char 
		 -> Vram(80), 
  pm4             2   15[COMRAM] PTR unsigned char 
		 -> Vram(80), 
  x               1   25[COMRAM] unsigned char 
  matrix_1        1   14[COMRAM] unsigned char 
  matrix_2        1   13[COMRAM] unsigned char 
  matrix_3        1   12[COMRAM] unsigned char 
  matrix_4        1   11[COMRAM] unsigned char 
 Return value:  Size  Location     Type
                  1    wreg      void 
 Registers used:
		wreg, fsr2l, fsr2h, status,2, status,0, cstack
 Tracked objects:
		On entry : 
		On exit  : 
		Unchanged: 
 Data sizes:     COMRAM   BANK0   BANK1   BANK2   BANK3   BANK4   BANK5
      Params:         0       0       0       0       0       0       0
      Locals:        15       0       0       0       0       0       0
      Temps:          2       0       0       0       0       0       0
      Totals:        17       0       0       0       0       0       0
Total ram usage:       17 bytes
 Hardware stack levels used:    1
 Hardware stack levels required when called:    2
 This function calls:
		_MAX7219_Write
 This function is called by:
		_main
 This function uses a non-reentrant model


 *************** function _MAX7219_Init *****************
 Defined at:
		line 76 in file "max7219.c"
 Parameters:    Size  Location     Type
  n               1    wreg     unsigned char 
 Auto vars:     Size  Location     Type
  n               1   11[COMRAM] unsigned char 
  i               1   12[COMRAM] unsigned char 
 Return value:  Size  Location     Type
                  1    wreg      void 
 Registers used:
		wreg, status,2, status,0, cstack
 Tracked objects:
		On entry : 
		On exit  : 
		Unchanged: 
 Data sizes:     COMRAM   BANK0   BANK1   BANK2   BANK3   BANK4   BANK5
      Params:         0       0       0       0       0       0       0
      Locals:         2       0       0       0       0       0       0
      Temps:          0       0       0       0       0       0       0
      Totals:         2       0       0       0       0       0       0
Total ram usage:        2 bytes
 Hardware stack levels used:    1
 Hardware stack levels required when called:    3
 This function calls:
		_MAX7219_Clear
		_MAX7219_DisplayTestStop
		_MAX7219_SetBrightness
		_MAX7219_ShutdownStop
		_MAX7219_Write
 This function is called by:
		_main
 This function uses a non-reentrant model


 *************** function _MAX7219_ShutdownStop *****************
 Defined at:
		line 117 in file "max7219.c"
 Parameters:    Size  Location     Type
  i               1    wreg     unsigned char 
 Auto vars:     Size  Location     Type
  i               1    9[COMRAM] unsigned char 
 Return value:  Size  Location     Type
                  1    wreg      void 
 Registers used:
		wreg, status,2, status,0, cstack
 Tracked objects:
		On entry : 
		On exit  : 
		Unchanged: 
 Data sizes:     COMRAM   BANK0   BANK1   BANK2   BANK3   BANK4   BANK5
      Params:         0       0       0       0       0       0       0
      Locals:         1       0       0       0       0       0       0
      Temps:          0       0       0       0       0       0       0
      Totals:         1       0       0       0       0       0       0
Total ram usage:        1 bytes
 Hardware stack levels used:    1
 Hardware stack levels required when called:    2
 This function calls:
		_MAX7219_Write
 This function is called by:
		_MAX7219_Init
 This function uses a non-reentrant model


 *************** function _MAX7219_SetBrightness *****************
 Defined at:
		line 162 in file "max7219.c"
 Parameters:    Size  Location     Type
  i               1    wreg     unsigned char 
  brightness      1    9[COMRAM] unsigned char 
 Auto vars:     Size  Location     Type
  i               1   10[COMRAM] unsigned char 
 Return value:  Size  Location     Type
                  1    wreg      void 
 Registers used:
		wreg, status,2, status,0, cstack
 Tracked objects:
		On entry : 
		On exit  : 
		Unchanged: 
 Data sizes:     COMRAM   BANK0   BANK1   BANK2   BANK3   BANK4   BANK5
      Params:         1       0       0       0       0       0       0
      Locals:         1       0       0       0       0       0       0
      Temps:          0       0       0       0       0       0       0
      Totals:         2       0       0       0       0       0       0
Total ram usage:        2 bytes
 Hardware stack levels used:    1
 Hardware stack levels required when called:    2
 This function calls:
		_MAX7219_Write
 This function is called by:
		_MAX7219_Init
 This function uses a non-reentrant model


 *************** function _MAX7219_DisplayTestStop *****************
 Defined at:
		line 147 in file "max7219.c"
 Parameters:    Size  Location     Type
  i               1    wreg     unsigned char 
 Auto vars:     Size  Location     Type
  i               1    9[COMRAM] unsigned char 
 Return value:  Size  Location     Type
                  1    wreg      void 
 Registers used:
		wreg, status,2, status,0, cstack
 Tracked objects:
		On entry : 
		On exit  : 
		Unchanged: 
 Data sizes:     COMRAM   BANK0   BANK1   BANK2   BANK3   BANK4   BANK5
      Params:         0       0       0       0       0       0       0
      Locals:         1       0       0       0       0       0       0
      Temps:          0       0       0       0       0       0       0
      Totals:         1       0       0       0       0       0       0
Total ram usage:        1 bytes
 Hardware stack levels used:    1
 Hardware stack levels required when called:    2
 This function calls:
		_MAX7219_Write
 This function is called by:
		_MAX7219_Init
 This function uses a non-reentrant model


 *************** function _MAX7219_Clear *****************
 Defined at:
		line 178 in file "max7219.c"
 Parameters:    Size  Location     Type
  n               1    wreg     unsigned char 
 Auto vars:     Size  Location     Type
  n               1    9[COMRAM] unsigned char 
  i               1   10[COMRAM] unsigned char 
 Return value:  Size  Location     Type
                  1    wreg      void 
 Registers used:
		wreg, status,2, status,0, cstack
 Tracked objects:
		On entry : 
		On exit  : 
		Unchanged: 
 Data sizes:     COMRAM   BANK0   BANK1   BANK2   BANK3   BANK4   BANK5
      Params:         0       0       0       0       0       0       0
      Locals:         2       0       0       0       0       0       0
      Temps:          0       0       0       0       0       0       0
      Totals:         2       0       0       0       0       0       0
Total ram usage:        2 bytes
 Hardware stack levels used:    1
 Hardware stack levels required when called:    2
 This function calls:
		_MAX7219_Write
 This function is called by:
		_MAX7219_Init
 This function uses a non-reentrant model


 *************** function _MAX7219_Write *****************
 Defined at:
		line 407 in file "max7219.c"
 Parameters:    Size  Location     Type
  n               1    wreg     unsigned char 
  reg_number      1    5[COMRAM] unsigned char 
  dataout         1    6[COMRAM] unsigned char 
 Auto vars:     Size  Location     Type
  n               1    8[COMRAM] unsigned char 
  i               1    7[COMRAM] unsigned char 
 Return value:  Size  Location     Type
                  1    wreg      void 
 Registers used:
		wreg, status,2, status,0, cstack
 Tracked objects:
		On entry : 
		On exit  : 
		Unchanged: 
 Data sizes:     COMRAM   BANK0   BANK1   BANK2   BANK3   BANK4   BANK5
      Params:         2       0       0       0       0       0       0
      Locals:         2       0       0       0       0       0       0
      Temps:          0       0       0       0       0       0       0
      Totals:         4       0       0       0       0       0       0
Total ram usage:        4 bytes
 Hardware stack levels used:    1
 Hardware stack levels required when called:    1
 This function calls:
		_MAX7219_SendByte
 This function is called by:
		_MAX7219_Init
		_MAX7219_ShutdownStop
		_MAX7219_DisplayTestStop
		_MAX7219_SetBrightness
		_MAX7219_Clear
		_Mostrar
		_MAX7219_ShutdownStart
		_MAX7219_DisplayTestStart
		_WriteChar7219
 This function uses a non-reentrant model


 *************** function _MAX7219_SendByte *****************
 Defined at:
		line 443 in file "max7219.c"
 Parameters:    Size  Location     Type
  dataout         1    wreg     unsigned char 
 Auto vars:     Size  Location     Type
  dataout         1    2[COMRAM] unsigned char 
  mask            1    3[COMRAM] unsigned char 
  i               1    4[COMRAM] unsigned char 
 Return value:  Size  Location     Type
                  1    wreg      void 
 Registers used:
		wreg, status,2, status,0
 Tracked objects:
		On entry : 
		On exit  : 
		Unchanged: 
 Data sizes:     COMRAM   BANK0   BANK1   BANK2   BANK3   BANK4   BANK5
      Params:         0       0       0       0       0       0       0
      Locals:         3       0       0       0       0       0       0
      Temps:          2       0       0       0       0       0       0
      Totals:         5       0       0       0       0       0       0
Total ram usage:        5 bytes
 Hardware stack levels used:    1
 This function calls:
		Nothing
 This function is called by:
		_MAX7219_Write
 This function uses a non-reentrant model



MODULE INFORMATION

Module		Function		Class		Link	Load	Size
shared
		_men           		MEDIUMCONST    	7FF7	0000	7
		__initialization		CODE           	7B22	0000	57
		_Fuente        		MEDIUMCONST    	7E4F	0000	425

shared estimated size: 489

max7219.c
		_MAX7219_SetBrightness		CODE           	7A74	0000	23
		_MAX7219_DisplayTestStop		CODE           	7A50	0000	19
		_MAX7219_ShutdownStop		CODE           	7A62	0000	19
		_MAX7219_Init  		CODE           	7BB4	0000	83
		_MAX7219_SendByte		CODE           	7AE2	0000	65
		_Mostrar       		CODE           	7CB6	0000	409
		_MAX7219_Write 		CODE           	7B64	0000	81
		_MAX7219_Clear 		CODE           	7A8A	0000	33
		_WriteTexto    		CODE           	7C06	0000	177

max7219.c estimated size: 909

main.c
		_main          		CODE           	7AAA	0000	57

main.c estimated size: 57

